; Function Attrs: mustprogress uwtable
define void @_ZN32pxrInternal_v0_24__pxrReserved__8HioImage14OpenForReadingERKNSt7__cxx1112basic_stringIcSt11char_traitsIcESaIcEEEiiNS0_16SourceColorSpaceEb(ptr dead_on_unwind noalias nocapture writable writeonly sret(%"class.std::shared_ptr") align 8 %0, ptr noundef nonnull align 8 dereferenceable(32) %1, i32 noundef %2, i32 noundef %3, i32 noundef %4, i1 noundef zeroext %5) local_unnamed_addr #0 align 2 personality ptr @__gxx_personality_v0 {
  %7 = alloca %"class.std::shared_ptr", align 8
  %8 = tail call noundef nonnull align 8 dereferenceable(8) ptr @_ZN32pxrInternal_v0_24__pxrReserved__16HioImageRegistry11GetInstanceEv()
  call void @_ZN32pxrInternal_v0_24__pxrReserved__16HioImageRegistry15_ConstructImageERKNSt7__cxx1112basic_stringIcSt11char_traitsIcESaIcEEE(ptr dead_on_unwind nonnull writable sret(%"class.std::shared_ptr") align 8 %7, ptr noundef nonnull align 8 dereferenceable(8) %8, ptr noundef nonnull align 8 dereferenceable(32) %1)
  %9 = load ptr, ptr %7, align 8
  %.not = icmp eq ptr %9, null
  br i1 %.not, label %22, label %10

10:                                               ; preds = %6
  %11 = load ptr, ptr %9, align 8
  %12 = getelementptr inbounds i8, ptr %11, i64 112
  %13 = load ptr, ptr %12, align 8
  %14 = invoke noundef zeroext i1 %13(ptr noundef nonnull align 8 dereferenceable(8) %9, ptr noundef nonnull align 8 dereferenceable(32) %1, i32 noundef %2, i32 noundef %3, i32 noundef %4, i1 noundef zeroext %5)
          to label %15 unwind label %16

15:                                               ; preds = %10
  br i1 %14, label %.thread, label %22

16:                                               ; preds = %10
  %17 = landingpad { ptr, i32 }
          cleanup
  call void @_ZNSt10shared_ptrIN32pxrInternal_v0_24__pxrReserved__8HioImageEED2Ev(ptr noundef nonnull align 8 dereferenceable(16) %7) #12
  resume { ptr, i32 } %17

.thread:                                          ; preds = %15
  %18 = load ptr, ptr %7, align 8
  store ptr %18, ptr %0, align 8
  %19 = getelementptr inbounds nuw i8, ptr %0, i64 8
  %20 = getelementptr inbounds nuw i8, ptr %7, i64 8
  %21 = load ptr, ptr %20, align 8
  store ptr %21, ptr %19, align 8
  br label %_ZNSt10shared_ptrIN32pxrInternal_v0_24__pxrReserved__8HioImageEED2Ev.exit

22:                                               ; preds = %6, %15
  call void @llvm.memset.p0.i64(ptr noundef nonnull align 8 dereferenceable(16) %0, i8 0, i64 16, i1 false)
  %.phi.trans.insert = getelementptr inbounds nuw i8, ptr %7, i64 8
  %.pre = load ptr, ptr %.phi.trans.insert, align 8
  %.not.i.i.i = icmp eq ptr %.pre, null
  br i1 %.not.i.i.i, label %_ZNSt10shared_ptrIN32pxrInternal_v0_24__pxrReserved__8HioImageEED2Ev.exit, label %23

23:                                               ; preds = %22
  %24 = getelementptr inbounds nuw i8, ptr %.pre, i64 8
  %25 = load atomic i64, ptr %24 acquire, align 8
  %26 = icmp eq i64 %25, 4294967297
  %27 = trunc i64 %25 to i32
  br i1 %26, label %28, label %33

28:                                               ; preds = %23
  store i32 0, ptr %24, align 8
  %29 = getelementptr inbounds nuw i8, ptr %.pre, i64 12
  store i32 0, ptr %29, align 4
  %30 = load ptr, ptr %.pre, align 8
  %31 = getelementptr inbounds i8, ptr %30, i64 16
  %32 = load ptr, ptr %31, align 8
  call void %32(ptr noundef nonnull align 8 dereferenceable(16) %.pre) #12
  br label %_ZNSt16_Sp_counted_baseILN9__gnu_cxx12_Lock_policyE2EE24_M_release_last_use_coldEv.exit.sink.split.i.i.i.i

33:                                               ; preds = %23
  %34 = load i8, ptr @__libc_single_threaded, align 1
  %.not.i.i.i.i = icmp eq i8 %34, 0
  br i1 %.not.i.i.i.i, label %37, label %35

35:                                               ; preds = %33
  %36 = add nsw i32 %27, -1
  store i32 %36, ptr %24, align 4
  br label %39

37:                                               ; preds = %33
  %38 = atomicrmw volatile add ptr %24, i32 -1 acq_rel, align 4
  br label %39

39:                                               ; preds = %37, %35
  %.0.i.i.i.i = phi i32 [ %27, %35 ], [ %38, %37 ]
  %40 = icmp eq i32 %.0.i.i.i.i, 1
  br i1 %40, label %41, label %_ZNSt10shared_ptrIN32pxrInternal_v0_24__pxrReserved__8HioImageEED2Ev.exit

41:                                               ; preds = %39
  %42 = load ptr, ptr %.pre, align 8
  %43 = getelementptr inbounds i8, ptr %42, i64 16
  %44 = load ptr, ptr %43, align 8
  call void %44(ptr noundef nonnull align 8 dereferenceable(16) %.pre) #12
  %45 = getelementptr inbounds nuw i8, ptr %.pre, i64 12
  %46 = load i8, ptr @__libc_single_threaded, align 1
  %.not.i.i.i.i.i.i = icmp eq i8 %46, 0
  br i1 %.not.i.i.i.i.i.i, label %50, label %47

47:                                               ; preds = %41
  %48 = load i32, ptr %45, align 4
  %49 = add nsw i32 %48, -1
  store i32 %49, ptr %45, align 4
  br label %52

50:                                               ; preds = %41
  %51 = atomicrmw volatile add ptr %45, i32 -1 acq_rel, align 4
  br label %52

52:                                               ; preds = %50, %47
  %.0.i.i.i.i.i.i = phi i32 [ %48, %47 ], [ %51, %50 ]
  %53 = icmp eq i32 %.0.i.i.i.i.i.i, 1
  br i1 %53, label %_ZNSt16_Sp_counted_baseILN9__gnu_cxx12_Lock_policyE2EE24_M_release_last_use_coldEv.exit.sink.split.i.i.i.i, label %_ZNSt10shared_ptrIN32pxrInternal_v0_24__pxrReserved__8HioImageEED2Ev.exit

_ZNSt16_Sp_counted_baseILN9__gnu_cxx12_Lock_policyE2EE24_M_release_last_use_coldEv.exit.sink.split.i.i.i.i: ; preds = %52, %28
  %54 = load ptr, ptr %.pre, align 8
  %55 = getelementptr inbounds i8, ptr %54, i64 24
  %56 = load ptr, ptr %55, align 8
  call void %56(ptr noundef nonnull align 8 dereferenceable(16) %.pre) #12
  br label %_ZNSt10shared_ptrIN32pxrInternal_v0_24__pxrReserved__8HioImageEED2Ev.exit

_ZNSt10shared_ptrIN32pxrInternal_v0_24__pxrReserved__8HioImageEED2Ev.exit: ; preds = %.thread, %22, %39, %52, %_ZNSt16_Sp_counted_baseILN9__gnu_cxx12_Lock_policyE2EE24_M_release_last_use_coldEv.exit.sink.split.i.i.i.i
  ret void
}